target datalayout = "e-m:e-p270:32:32-p271:32:32-p272:64:64-i64:64-i128:128-f80:128-n8:16:32:64-S128"
target triple = "x86_64-pc-linux-gnu"

%struct.waylanddynlib = type { ptr, ptr }

@SDL_WAYLAND_HAVE_WAYLAND_CLIENT = hidden global i32 0, align 4
@WAYLAND_wl_proxy_marshal = hidden global ptr null, align 8
@WAYLAND_wl_proxy_create = hidden global ptr null, align 8
@WAYLAND_wl_proxy_destroy = hidden global ptr null, align 8
@WAYLAND_wl_proxy_add_listener = hidden global ptr null, align 8
@WAYLAND_wl_proxy_set_user_data = hidden global ptr null, align 8
@WAYLAND_wl_proxy_get_user_data = hidden global ptr null, align 8
@WAYLAND_wl_proxy_get_version = hidden global ptr null, align 8
@WAYLAND_wl_proxy_get_id = hidden global ptr null, align 8
@WAYLAND_wl_proxy_get_class = hidden global ptr null, align 8
@WAYLAND_wl_proxy_set_queue = hidden global ptr null, align 8
@WAYLAND_wl_proxy_create_wrapper = hidden global ptr null, align 8
@WAYLAND_wl_proxy_wrapper_destroy = hidden global ptr null, align 8
@WAYLAND_wl_display_connect = hidden global ptr null, align 8
@WAYLAND_wl_display_connect_to_fd = hidden global ptr null, align 8
@WAYLAND_wl_display_disconnect = hidden global ptr null, align 8
@WAYLAND_wl_display_get_fd = hidden global ptr null, align 8
@WAYLAND_wl_display_dispatch = hidden global ptr null, align 8
@WAYLAND_wl_display_dispatch_queue = hidden global ptr null, align 8
@WAYLAND_wl_display_dispatch_queue_pending = hidden global ptr null, align 8
@WAYLAND_wl_display_dispatch_pending = hidden global ptr null, align 8
@WAYLAND_wl_display_prepare_read = hidden global ptr null, align 8
@WAYLAND_wl_display_prepare_read_queue = hidden global ptr null, align 8
@WAYLAND_wl_display_read_events = hidden global ptr null, align 8
@WAYLAND_wl_display_cancel_read = hidden global ptr null, align 8
@WAYLAND_wl_display_get_error = hidden global ptr null, align 8
@WAYLAND_wl_display_flush = hidden global ptr null, align 8
@WAYLAND_wl_display_roundtrip = hidden global ptr null, align 8
@WAYLAND_wl_display_create_queue = hidden global ptr null, align 8
@WAYLAND_wl_event_queue_destroy = hidden global ptr null, align 8
@WAYLAND_wl_log_set_handler_client = hidden global ptr null, align 8
@WAYLAND_wl_list_init = hidden global ptr null, align 8
@WAYLAND_wl_list_insert = hidden global ptr null, align 8
@WAYLAND_wl_list_remove = hidden global ptr null, align 8
@WAYLAND_wl_list_length = hidden global ptr null, align 8
@WAYLAND_wl_list_empty = hidden global ptr null, align 8
@WAYLAND_wl_list_insert_list = hidden global ptr null, align 8
@WAYLAND_wl_proxy_marshal_constructor = hidden global ptr null, align 8
@WAYLAND_wl_proxy_marshal_constructor_versioned = hidden global ptr null, align 8
@WAYLAND_wl_proxy_set_tag = hidden global ptr null, align 8
@WAYLAND_wl_proxy_get_tag = hidden global ptr null, align 8
@WAYLAND_wl_proxy_marshal_flags = hidden global ptr null, align 8
@WAYLAND_wl_proxy_marshal_array_flags = hidden global ptr null, align 8
@WAYLAND_wl_seat_interface = hidden global ptr null, align 8
@WAYLAND_wl_surface_interface = hidden global ptr null, align 8
@WAYLAND_wl_shm_pool_interface = hidden global ptr null, align 8
@WAYLAND_wl_buffer_interface = hidden global ptr null, align 8
@WAYLAND_wl_registry_interface = hidden global ptr null, align 8
@WAYLAND_wl_region_interface = hidden global ptr null, align 8
@WAYLAND_wl_pointer_interface = hidden global ptr null, align 8
@WAYLAND_wl_keyboard_interface = hidden global ptr null, align 8
@WAYLAND_wl_compositor_interface = hidden global ptr null, align 8
@WAYLAND_wl_output_interface = hidden global ptr null, align 8
@WAYLAND_wl_shm_interface = hidden global ptr null, align 8
@WAYLAND_wl_data_device_interface = hidden global ptr null, align 8
@WAYLAND_wl_data_source_interface = hidden global ptr null, align 8
@WAYLAND_wl_data_offer_interface = hidden global ptr null, align 8
@WAYLAND_wl_data_device_manager_interface = hidden global ptr null, align 8
@SDL_WAYLAND_HAVE_WAYLAND_EGL = hidden global i32 0, align 4
@WAYLAND_wl_egl_window_create = hidden global ptr null, align 8
@WAYLAND_wl_egl_window_destroy = hidden global ptr null, align 8
@WAYLAND_wl_egl_window_resize = hidden global ptr null, align 8
@WAYLAND_wl_egl_window_get_attached_size = hidden global ptr null, align 8
@SDL_WAYLAND_HAVE_WAYLAND_CURSOR = hidden global i32 0, align 4
@WAYLAND_wl_cursor_theme_load = hidden global ptr null, align 8
@WAYLAND_wl_cursor_theme_destroy = hidden global ptr null, align 8
@WAYLAND_wl_cursor_theme_get_cursor = hidden global ptr null, align 8
@WAYLAND_wl_cursor_image_get_buffer = hidden global ptr null, align 8
@WAYLAND_wl_cursor_frame = hidden global ptr null, align 8
@SDL_WAYLAND_HAVE_WAYLAND_XKB = hidden global i32 0, align 4
@WAYLAND_xkb_state_key_get_syms = hidden global ptr null, align 8
@WAYLAND_xkb_keysym_to_utf8 = hidden global ptr null, align 8
@WAYLAND_xkb_keymap_new_from_string = hidden global ptr null, align 8
@WAYLAND_xkb_state_new = hidden global ptr null, align 8
@WAYLAND_xkb_keymap_key_repeats = hidden global ptr null, align 8
@WAYLAND_xkb_keymap_unref = hidden global ptr null, align 8
@WAYLAND_xkb_state_unref = hidden global ptr null, align 8
@WAYLAND_xkb_context_unref = hidden global ptr null, align 8
@WAYLAND_xkb_context_new = hidden global ptr null, align 8
@WAYLAND_xkb_state_update_mask = hidden global ptr null, align 8
@WAYLAND_xkb_compose_table_new_from_locale = hidden global ptr null, align 8
@WAYLAND_xkb_compose_state_reset = hidden global ptr null, align 8
@WAYLAND_xkb_compose_table_unref = hidden global ptr null, align 8
@WAYLAND_xkb_compose_state_new = hidden global ptr null, align 8
@WAYLAND_xkb_compose_state_unref = hidden global ptr null, align 8
@WAYLAND_xkb_compose_state_feed = hidden global ptr null, align 8
@WAYLAND_xkb_compose_state_get_status = hidden global ptr null, align 8
@WAYLAND_xkb_compose_state_get_one_sym = hidden global ptr null, align 8
@WAYLAND_xkb_keymap_key_for_each = hidden global ptr null, align 8
@WAYLAND_xkb_keymap_key_get_syms_by_level = hidden global ptr null, align 8
@WAYLAND_xkb_keysym_to_utf32 = hidden global ptr null, align 8
@WAYLAND_xkb_keymap_mod_get_index = hidden global ptr null, align 8
@WAYLAND_xkb_keymap_layout_get_name = hidden global ptr null, align 8
@wayland_load_refcount = internal global i32 0, align 4

; Function Attrs: nounwind uwtable
define hidden void @SDL_WAYLAND_UnloadSymbols() #0 {
  %1 = alloca i32, align 4
  %2 = load i32, ptr @wayland_load_refcount, align 4
  %3 = icmp sgt i32 %2, 0
  br i1 %3, label %4, label %36

4:                                                ; preds = %0
  %5 = load i32, ptr @wayland_load_refcount, align 4
  %6 = add nsw i32 %5, -1
  store i32 %6, ptr @wayland_load_refcount, align 4
  %7 = icmp eq i32 %6, 0
  br i1 %7, label %8, label %35

8:                                                ; preds = %4
  call void @llvm.lifetime.start.p0(i64 4, ptr %1) #3
  store i32 0, ptr @SDL_WAYLAND_HAVE_WAYLAND_CLIENT, align 4
  store ptr null, ptr @WAYLAND_wl_proxy_marshal, align 8
  store ptr null, ptr @WAYLAND_wl_proxy_create, align 8
  store ptr null, ptr @WAYLAND_wl_proxy_destroy, align 8
  store ptr null, ptr @WAYLAND_wl_proxy_add_listener, align 8
  store ptr null, ptr @WAYLAND_wl_proxy_set_user_data, align 8
  store ptr null, ptr @WAYLAND_wl_proxy_get_user_data, align 8
  store ptr null, ptr @WAYLAND_wl_proxy_get_version, align 8
  store ptr null, ptr @WAYLAND_wl_proxy_get_id, align 8
  store ptr null, ptr @WAYLAND_wl_proxy_get_class, align 8
  store ptr null, ptr @WAYLAND_wl_proxy_set_queue, align 8
  store ptr null, ptr @WAYLAND_wl_proxy_create_wrapper, align 8
  store ptr null, ptr @WAYLAND_wl_proxy_wrapper_destroy, align 8
  store ptr null, ptr @WAYLAND_wl_display_connect, align 8
  store ptr null, ptr @WAYLAND_wl_display_connect_to_fd, align 8
  store ptr null, ptr @WAYLAND_wl_display_disconnect, align 8
  store ptr null, ptr @WAYLAND_wl_display_get_fd, align 8
  store ptr null, ptr @WAYLAND_wl_display_dispatch, align 8
  store ptr null, ptr @WAYLAND_wl_display_dispatch_queue, align 8
  store ptr null, ptr @WAYLAND_wl_display_dispatch_queue_pending, align 8
  store ptr null, ptr @WAYLAND_wl_display_dispatch_pending, align 8
  store ptr null, ptr @WAYLAND_wl_display_prepare_read, align 8
  store ptr null, ptr @WAYLAND_wl_display_prepare_read_queue, align 8
  store ptr null, ptr @WAYLAND_wl_display_read_events, align 8
  store ptr null, ptr @WAYLAND_wl_display_cancel_read, align 8
  store ptr null, ptr @WAYLAND_wl_display_get_error, align 8
  store ptr null, ptr @WAYLAND_wl_display_flush, align 8
  store ptr null, ptr @WAYLAND_wl_display_roundtrip, align 8
  store ptr null, ptr @WAYLAND_wl_display_create_queue, align 8
  store ptr null, ptr @WAYLAND_wl_event_queue_destroy, align 8
  store ptr null, ptr @WAYLAND_wl_log_set_handler_client, align 8
  store ptr null, ptr @WAYLAND_wl_list_init, align 8
  store ptr null, ptr @WAYLAND_wl_list_insert, align 8
  store ptr null, ptr @WAYLAND_wl_list_remove, align 8
  store ptr null, ptr @WAYLAND_wl_list_length, align 8
  store ptr null, ptr @WAYLAND_wl_list_empty, align 8
  store ptr null, ptr @WAYLAND_wl_list_insert_list, align 8
  store ptr null, ptr @WAYLAND_wl_proxy_marshal_constructor, align 8
  store ptr null, ptr @WAYLAND_wl_proxy_marshal_constructor_versioned, align 8
  store ptr null, ptr @WAYLAND_wl_proxy_set_tag, align 8
  store ptr null, ptr @WAYLAND_wl_proxy_get_tag, align 8
  store ptr null, ptr @WAYLAND_wl_proxy_marshal_flags, align 8
  store ptr null, ptr @WAYLAND_wl_proxy_marshal_array_flags, align 8
  store ptr null, ptr @WAYLAND_wl_seat_interface, align 8
  store ptr null, ptr @WAYLAND_wl_surface_interface, align 8
  store ptr null, ptr @WAYLAND_wl_shm_pool_interface, align 8
  store ptr null, ptr @WAYLAND_wl_buffer_interface, align 8
  store ptr null, ptr @WAYLAND_wl_registry_interface, align 8
  store ptr null, ptr @WAYLAND_wl_region_interface, align 8
  store ptr null, ptr @WAYLAND_wl_pointer_interface, align 8
  store ptr null, ptr @WAYLAND_wl_keyboard_interface, align 8
  store ptr null, ptr @WAYLAND_wl_compositor_interface, align 8
  store ptr null, ptr @WAYLAND_wl_output_interface, align 8
  store ptr null, ptr @WAYLAND_wl_shm_interface, align 8
  store ptr null, ptr @WAYLAND_wl_data_device_interface, align 8
  store ptr null, ptr @WAYLAND_wl_data_source_interface, align 8
  store ptr null, ptr @WAYLAND_wl_data_offer_interface, align 8
  store ptr null, ptr @WAYLAND_wl_data_device_manager_interface, align 8
  store i32 0, ptr @SDL_WAYLAND_HAVE_WAYLAND_EGL, align 4
  store ptr null, ptr @WAYLAND_wl_egl_window_create, align 8
  store ptr null, ptr @WAYLAND_wl_egl_window_destroy, align 8
  store ptr null, ptr @WAYLAND_wl_egl_window_resize, align 8
  store ptr null, ptr @WAYLAND_wl_egl_window_get_attached_size, align 8
  store i32 0, ptr @SDL_WAYLAND_HAVE_WAYLAND_CURSOR, align 4
  store ptr null, ptr @WAYLAND_wl_cursor_theme_load, align 8
  store ptr null, ptr @WAYLAND_wl_cursor_theme_destroy, align 8
  store ptr null, ptr @WAYLAND_wl_cursor_theme_get_cursor, align 8
  store ptr null, ptr @WAYLAND_wl_cursor_image_get_buffer, align 8
  store ptr null, ptr @WAYLAND_wl_cursor_frame, align 8
  store i32 0, ptr @SDL_WAYLAND_HAVE_WAYLAND_XKB, align 4
  store ptr null, ptr @WAYLAND_xkb_state_key_get_syms, align 8
  store ptr null, ptr @WAYLAND_xkb_keysym_to_utf8, align 8
  store ptr null, ptr @WAYLAND_xkb_keymap_new_from_string, align 8
  store ptr null, ptr @WAYLAND_xkb_state_new, align 8
  store ptr null, ptr @WAYLAND_xkb_keymap_key_repeats, align 8
  store ptr null, ptr @WAYLAND_xkb_keymap_unref, align 8
  store ptr null, ptr @WAYLAND_xkb_state_unref, align 8
  store ptr null, ptr @WAYLAND_xkb_context_unref, align 8
  store ptr null, ptr @WAYLAND_xkb_context_new, align 8
  store ptr null, ptr @WAYLAND_xkb_state_update_mask, align 8
  store ptr null, ptr @WAYLAND_xkb_compose_table_new_from_locale, align 8
  store ptr null, ptr @WAYLAND_xkb_compose_state_reset, align 8
  store ptr null, ptr @WAYLAND_xkb_compose_table_unref, align 8
  store ptr null, ptr @WAYLAND_xkb_compose_state_new, align 8
  store ptr null, ptr @WAYLAND_xkb_compose_state_unref, align 8
  store ptr null, ptr @WAYLAND_xkb_compose_state_feed, align 8
  store ptr null, ptr @WAYLAND_xkb_compose_state_get_status, align 8
  store ptr null, ptr @WAYLAND_xkb_compose_state_get_one_sym, align 8
  store ptr null, ptr @WAYLAND_xkb_keymap_key_for_each, align 8
  store ptr null, ptr @WAYLAND_xkb_keymap_key_get_syms_by_level, align 8
  store ptr null, ptr @WAYLAND_xkb_keysym_to_utf32, align 8
  store ptr null, ptr @WAYLAND_xkb_keymap_mod_get_index, align 8
  store ptr null, ptr @WAYLAND_xkb_keymap_layout_get_name, align 8
  store i32 0, ptr %1, align 4
  br label %9

9:                                                ; preds = %31, %8
  %10 = load i32, ptr %1, align 4
  %11 = sext i32 %10 to i64
  %12 = icmp ult i64 %11, 5
  br i1 %12, label %13, label %34

13:                                               ; preds = %9
  %14 = load i32, ptr %1, align 4
  %15 = sext i32 %14 to i64
  %16 = getelementptr inbounds [5 x %struct.waylanddynlib], ptr @waylandlibs, i64 0, i64 %15
  %17 = getelementptr inbounds nuw %struct.waylanddynlib, ptr %16, i32 0, i32 0
  %18 = load ptr, ptr %17, align 16
  %19 = icmp ne ptr %18, null
  br i1 %19, label %20, label %30

20:                                               ; preds = %13
  %21 = load i32, ptr %1, align 4
  %22 = sext i32 %21 to i64
  %23 = getelementptr inbounds [5 x %struct.waylanddynlib], ptr @waylandlibs, i64 0, i64 %22
  %24 = getelementptr inbounds nuw %struct.waylanddynlib, ptr %23, i32 0, i32 0
  %25 = load ptr, ptr %24, align 16
  call void @SDL_UnloadObject_REAL(ptr noundef %25)
  %26 = load i32, ptr %1, align 4
  %27 = sext i32 %26 to i64
  %28 = getelementptr inbounds [5 x %struct.waylanddynlib], ptr @waylandlibs, i64 0, i64 %27
  %29 = getelementptr inbounds nuw %struct.waylanddynlib, ptr %28, i32 0, i32 0
  store ptr null, ptr %29, align 16
  br label %30

30:                                               ; preds = %20, %13
  br label %31

31:                                               ; preds = %30
  %32 = load i32, ptr %1, align 4
  %33 = add nsw i32 %32, 1
  store i32 %33, ptr %1, align 4
  br label %9, !llvm.loop !3

34:                                               ; preds = %9
  call void @llvm.lifetime.end.p0(i64 4, ptr %1) #3
  br label %35

35:                                               ; preds = %34, %4
  br label %36

36:                                               ; preds = %35, %0
  ret void
}