; Function Attrs: nounwind uwtable
define hidden void @SDL_WAYLAND_UnloadSymbols() local_unnamed_addr #0 {
  %1 = load i32, ptr @wayland_load_refcount, align 4
  %2 = icmp sgt i32 %1, 0
  br i1 %2, label %3, label %.loopexit

3:                                                ; preds = %0
  %4 = add nsw i32 %1, -1
  store i32 %4, ptr @wayland_load_refcount, align 4
  %5 = icmp eq i32 %4, 0
  br i1 %5, label %6, label %.loopexit

6:                                                ; preds = %3
  store i32 0, ptr @SDL_WAYLAND_HAVE_WAYLAND_CLIENT, align 4
  store ptr null, ptr @WAYLAND_wl_proxy_marshal, align 8
  store ptr null, ptr @WAYLAND_wl_proxy_create, align 8
  store ptr null, ptr @WAYLAND_wl_proxy_destroy, align 8
  store ptr null, ptr @WAYLAND_wl_proxy_add_listener, align 8
  store ptr null, ptr @WAYLAND_wl_proxy_set_user_data, align 8
  store ptr null, ptr @WAYLAND_wl_proxy_get_user_data, align 8
  store ptr null, ptr @WAYLAND_wl_proxy_get_version, align 8
  store ptr null, ptr @WAYLAND_wl_proxy_get_id, align 8
  store ptr null, ptr @WAYLAND_wl_proxy_get_class, align 8
  store ptr null, ptr @WAYLAND_wl_proxy_set_queue, align 8
  store ptr null, ptr @WAYLAND_wl_proxy_create_wrapper, align 8
  store ptr null, ptr @WAYLAND_wl_proxy_wrapper_destroy, align 8
  store ptr null, ptr @WAYLAND_wl_display_connect, align 8
  store ptr null, ptr @WAYLAND_wl_display_connect_to_fd, align 8
  store ptr null, ptr @WAYLAND_wl_display_disconnect, align 8
  store ptr null, ptr @WAYLAND_wl_display_get_fd, align 8
  store ptr null, ptr @WAYLAND_wl_display_dispatch, align 8
  store ptr null, ptr @WAYLAND_wl_display_dispatch_queue, align 8
  store ptr null, ptr @WAYLAND_wl_display_dispatch_queue_pending, align 8
  store ptr null, ptr @WAYLAND_wl_display_dispatch_pending, align 8
  store ptr null, ptr @WAYLAND_wl_display_prepare_read, align 8
  store ptr null, ptr @WAYLAND_wl_display_prepare_read_queue, align 8
  store ptr null, ptr @WAYLAND_wl_display_read_events, align 8
  store ptr null, ptr @WAYLAND_wl_display_cancel_read, align 8
  store ptr null, ptr @WAYLAND_wl_display_get_error, align 8
  store ptr null, ptr @WAYLAND_wl_display_flush, align 8
  store ptr null, ptr @WAYLAND_wl_display_roundtrip, align 8
  store ptr null, ptr @WAYLAND_wl_display_create_queue, align 8
  store ptr null, ptr @WAYLAND_wl_event_queue_destroy, align 8
  store ptr null, ptr @WAYLAND_wl_log_set_handler_client, align 8
  store ptr null, ptr @WAYLAND_wl_list_init, align 8
  store ptr null, ptr @WAYLAND_wl_list_insert, align 8
  store ptr null, ptr @WAYLAND_wl_list_remove, align 8
  store ptr null, ptr @WAYLAND_wl_list_length, align 8
  store ptr null, ptr @WAYLAND_wl_list_empty, align 8
  store ptr null, ptr @WAYLAND_wl_list_insert_list, align 8
  store ptr null, ptr @WAYLAND_wl_proxy_marshal_constructor, align 8
  store ptr null, ptr @WAYLAND_wl_proxy_marshal_constructor_versioned, align 8
  store ptr null, ptr @WAYLAND_wl_proxy_set_tag, align 8
  store ptr null, ptr @WAYLAND_wl_proxy_get_tag, align 8
  store ptr null, ptr @WAYLAND_wl_proxy_marshal_flags, align 8
  store ptr null, ptr @WAYLAND_wl_proxy_marshal_array_flags, align 8
  store ptr null, ptr @WAYLAND_wl_seat_interface, align 8
  store ptr null, ptr @WAYLAND_wl_surface_interface, align 8
  store ptr null, ptr @WAYLAND_wl_shm_pool_interface, align 8
  store ptr null, ptr @WAYLAND_wl_buffer_interface, align 8
  store ptr null, ptr @WAYLAND_wl_registry_interface, align 8
  store ptr null, ptr @WAYLAND_wl_region_interface, align 8
  store ptr null, ptr @WAYLAND_wl_pointer_interface, align 8
  store ptr null, ptr @WAYLAND_wl_keyboard_interface, align 8
  store ptr null, ptr @WAYLAND_wl_compositor_interface, align 8
  store ptr null, ptr @WAYLAND_wl_output_interface, align 8
  store ptr null, ptr @WAYLAND_wl_shm_interface, align 8
  store ptr null, ptr @WAYLAND_wl_data_device_interface, align 8
  store ptr null, ptr @WAYLAND_wl_data_source_interface, align 8
  store ptr null, ptr @WAYLAND_wl_data_offer_interface, align 8
  store ptr null, ptr @WAYLAND_wl_data_device_manager_interface, align 8
  store i32 0, ptr @SDL_WAYLAND_HAVE_WAYLAND_EGL, align 4
  store ptr null, ptr @WAYLAND_wl_egl_window_create, align 8
  store ptr null, ptr @WAYLAND_wl_egl_window_destroy, align 8
  store ptr null, ptr @WAYLAND_wl_egl_window_resize, align 8
  store ptr null, ptr @WAYLAND_wl_egl_window_get_attached_size, align 8
  store i32 0, ptr @SDL_WAYLAND_HAVE_WAYLAND_CURSOR, align 4
  store ptr null, ptr @WAYLAND_wl_cursor_theme_load, align 8
  store ptr null, ptr @WAYLAND_wl_cursor_theme_destroy, align 8
  store ptr null, ptr @WAYLAND_wl_cursor_theme_get_cursor, align 8
  store ptr null, ptr @WAYLAND_wl_cursor_image_get_buffer, align 8
  store ptr null, ptr @WAYLAND_wl_cursor_frame, align 8
  store i32 0, ptr @SDL_WAYLAND_HAVE_WAYLAND_XKB, align 4
  store ptr null, ptr @WAYLAND_xkb_state_key_get_syms, align 8
  store ptr null, ptr @WAYLAND_xkb_keysym_to_utf8, align 8
  store ptr null, ptr @WAYLAND_xkb_keymap_new_from_string, align 8
  store ptr null, ptr @WAYLAND_xkb_state_new, align 8
  store ptr null, ptr @WAYLAND_xkb_keymap_key_repeats, align 8
  store ptr null, ptr @WAYLAND_xkb_keymap_unref, align 8
  store ptr null, ptr @WAYLAND_xkb_state_unref, align 8
  store ptr null, ptr @WAYLAND_xkb_context_unref, align 8
  store ptr null, ptr @WAYLAND_xkb_context_new, align 8
  store ptr null, ptr @WAYLAND_xkb_state_update_mask, align 8
  store ptr null, ptr @WAYLAND_xkb_compose_table_new_from_locale, align 8
  store ptr null, ptr @WAYLAND_xkb_compose_state_reset, align 8
  store ptr null, ptr @WAYLAND_xkb_compose_table_unref, align 8
  store ptr null, ptr @WAYLAND_xkb_compose_state_new, align 8
  store ptr null, ptr @WAYLAND_xkb_compose_state_unref, align 8
  store ptr null, ptr @WAYLAND_xkb_compose_state_feed, align 8
  store ptr null, ptr @WAYLAND_xkb_compose_state_get_status, align 8
  store ptr null, ptr @WAYLAND_xkb_compose_state_get_one_sym, align 8
  store ptr null, ptr @WAYLAND_xkb_keymap_key_for_each, align 8
  store ptr null, ptr @WAYLAND_xkb_keymap_key_get_syms_by_level, align 8
  store ptr null, ptr @WAYLAND_xkb_keysym_to_utf32, align 8
  store ptr null, ptr @WAYLAND_xkb_keymap_mod_get_index, align 8
  store ptr null, ptr @WAYLAND_xkb_keymap_layout_get_name, align 8
  br label %7

7:                                                ; preds = %6, %11
  %indvars.iv = phi i64 [ 0, %6 ], [ %indvars.iv.next, %11 ]
  %8 = getelementptr inbounds nuw [5 x %struct.waylanddynlib], ptr @waylandlibs, i64 0, i64 %indvars.iv
  %9 = load ptr, ptr %8, align 16
  %.not = icmp eq ptr %9, null
  br i1 %.not, label %11, label %10

10:                                               ; preds = %7
  tail call void @SDL_UnloadObject_REAL(ptr noundef nonnull %9) #2
  store ptr null, ptr %8, align 16
  br label %11

11:                                               ; preds = %7, %10
  %indvars.iv.next = add nuw nsw i64 %indvars.iv, 1
  %exitcond.not = icmp eq i64 %indvars.iv.next, 5
  br i1 %exitcond.not, label %.loopexit, label %7, !llvm.loop !3

.loopexit:                                        ; preds = %11, %3, %0
  ret void
}